target datalayout = "e-m:e-p270:32:32-p271:32:32-p272:64:64-i64:64-i128:128-f80:128-n8:16:32:64-S128"
target triple = "x86_64-pc-linux-gnu"

%struct.RewriteStateData = type { ptr, ptr, ptr, ptr, i32, i8, i32, i32, i32, i32, ptr, i64, ptr, ptr, ptr, i32 }
%struct.RelationData = type { %struct.RelFileLocator, ptr, i32, i32, i8, i8, i8, i8, i8, i32, i32, i32, i32, ptr, ptr, i32, %struct.LockInfoData, ptr, ptr, ptr, ptr, ptr, i8, ptr, ptr, ptr, ptr, ptr, ptr, i32, ptr, i8, ptr, ptr, i32, i8, i32, ptr, i8, ptr, ptr, ptr, ptr, ptr, ptr, ptr, i32, ptr, ptr, ptr, ptr, ptr, ptr, ptr, ptr, ptr, ptr, ptr, ptr, ptr, ptr, ptr, ptr, ptr, ptr, ptr, i32, i8, ptr }
%struct.RelFileLocator = type { i32, i32, i32 }
%struct.LockInfoData = type { %struct.LockRelId }
%struct.LockRelId = type { i32, i32 }
%struct.FormData_pg_class = type { i32, %struct.nameData, i32, i32, i32, i32, i32, i32, i32, i32, float, i32, i32, i8, i8, i8, i8, i16, i16, i8, i8, i8, i8, i8, i8, i8, i8, i32, i32, i32 }
%struct.nameData = type { [64 x i8] }
%struct.StdRdOptions = type { i32, i32, i32, %struct.AutoVacOpts, i8, i32, i32, i8, double }
%struct.AutoVacOpts = type { i8, i32, i32, i32, i32, i32, i32, i32, i32, i32, i32, i32, i32, double, double, double, double }
%struct.ItemPointerData = type { %struct.BlockIdData, i16 }
%struct.BlockIdData = type { i16, i16 }
%struct.HeapTupleData = type { i32, %struct.ItemPointerData, i32, ptr }
%struct.HeapTupleHeaderData = type { %union.anon, %struct.ItemPointerData, i16, i16, i8, [0 x i8] }
%union.anon = type { %struct.HeapTupleFields }
%struct.HeapTupleFields = type { i32, i32, %union.anon.0 }
%union.anon.0 = type { i32 }
%struct.PageHeaderData = type { %struct.PageXLogRecPtr, i16, i16, i16, i16, i16, i16, i32, [0 x %struct.ItemIdData] }
%struct.PageXLogRecPtr = type { i32, i32 }
%struct.ItemIdData = type { i32 }

@.str.6 = private unnamed_addr constant [14 x i8] c"rewriteheap.c\00", align 1
@.str.20 = private unnamed_addr constant [43 x i8] c"row is too big: size %zu, maximum size %zu\00", align 1
@__func__.raw_heap_insert = private unnamed_addr constant [16 x i8] c"raw_heap_insert\00", align 1
@.str.21 = private unnamed_addr constant [20 x i8] c"failed to add tuple\00", align 1

; Function Attrs: inlinehint nounwind uwtable
define internal void @BlockIdSet(ptr noundef %0, i32 noundef %1) #3 {
  %3 = alloca ptr, align 8
  %4 = alloca i32, align 4
  store ptr %0, ptr %3, align 8
  store i32 %1, ptr %4, align 4
  %5 = load i32, ptr %4, align 4
  %6 = lshr i32 %5, 16
  %7 = trunc i32 %6 to i16
  %8 = load ptr, ptr %3, align 8
  %9 = getelementptr inbounds nuw %struct.BlockIdData, ptr %8, i32 0, i32 0
  store i16 %7, ptr %9, align 2
  %10 = load i32, ptr %4, align 4
  %11 = and i32 %10, 65535
  %12 = trunc i32 %11 to i16
  %13 = load ptr, ptr %3, align 8
  %14 = getelementptr inbounds nuw %struct.BlockIdData, ptr %13, i32 0, i32 1
  store i16 %12, ptr %14, align 2
  ret void
}

; Function Attrs: inlinehint nounwind uwtable
define internal ptr @PageGetItem(ptr noundef %0, ptr noundef %1) #3 {
  %3 = alloca ptr, align 8
  %4 = alloca ptr, align 8
  store ptr %0, ptr %3, align 8
  store ptr %1, ptr %4, align 8
  %5 = load ptr, ptr %3, align 8
  %6 = load ptr, ptr %4, align 8
  %7 = load i32, ptr %6, align 4
  %8 = and i32 %7, 32767
  %9 = sext i32 %8 to i64
  %10 = getelementptr inbounds i8, ptr %5, i64 %9
  ret ptr %10
}

; Function Attrs: inlinehint nounwind uwtable
define internal ptr @PageGetItemId(ptr noundef %0, i16 noundef zeroext %1) #3 {
  %3 = alloca ptr, align 8
  %4 = alloca i16, align 2
  store ptr %0, ptr %3, align 8
  store i16 %1, ptr %4, align 2
  %5 = load ptr, ptr %3, align 8
  %6 = getelementptr inbounds nuw %struct.PageHeaderData, ptr %5, i32 0, i32 8
  %7 = load i16, ptr %4, align 2
  %8 = zext i16 %7 to i32
  %9 = sub i32 %8, 1
  %10 = sext i32 %9 to i64
  %11 = getelementptr inbounds [0 x %struct.ItemIdData], ptr %6, i64 0, i64 %10
  ret ptr %11
}

; Function Attrs: inlinehint nounwind uwtable
define internal zeroext i1 @ItemPointerIsValid(ptr noundef %0) #3 {
  %2 = alloca ptr, align 8
  store ptr %0, ptr %2, align 8
  %3 = load ptr, ptr %2, align 8
  %4 = icmp ne ptr %3, null
  br i1 %4, label %5, label %11

5:                                                ; preds = %1
  %6 = load ptr, ptr %2, align 8
  %7 = getelementptr inbounds nuw %struct.ItemPointerData, ptr %6, i32 0, i32 1
  %8 = load i16, ptr %7, align 2
  %9 = zext i16 %8 to i32
  %10 = icmp ne i32 %9, 0
  br label %11

11:                                               ; preds = %5, %1
  %12 = phi i1 [ false, %1 ], [ %10, %5 ]
  ret i1 %12
}

; Function Attrs: inlinehint nounwind uwtable
define internal void @ItemPointerSet(ptr noundef %0, i32 noundef %1, i16 noundef zeroext %2) #3 {
  %4 = alloca ptr, align 8
  %5 = alloca i32, align 4
  %6 = alloca i16, align 2
  store ptr %0, ptr %4, align 8
  store i32 %1, ptr %5, align 4
  store i16 %2, ptr %6, align 2
  %7 = load ptr, ptr %4, align 8
  %8 = getelementptr inbounds nuw %struct.ItemPointerData, ptr %7, i32 0, i32 0
  %9 = load i32, ptr %5, align 4
  call void @BlockIdSet(ptr noundef %8, i32 noundef %9)
  %10 = load i16, ptr %6, align 2
  %11 = load ptr, ptr %4, align 8
  %12 = getelementptr inbounds nuw %struct.ItemPointerData, ptr %11, i32 0, i32 1
  store i16 %10, ptr %12, align 2
  ret void
}

; Function Attrs: inlinehint nounwind uwtable
define internal zeroext i1 @HeapTupleHasExternal(ptr noundef %0) #3 {
  %2 = alloca ptr, align 8
  store ptr %0, ptr %2, align 8
  %3 = load ptr, ptr %2, align 8
  %4 = getelementptr inbounds nuw %struct.HeapTupleData, ptr %3, i32 0, i32 3
  %5 = load ptr, ptr %4, align 8
  %6 = getelementptr inbounds nuw %struct.HeapTupleHeaderData, ptr %5, i32 0, i32 3
  %7 = load i16, ptr %6, align 4
  %8 = zext i16 %7 to i32
  %9 = and i32 %8, 4
  %10 = icmp ne i32 %9, 0
  ret i1 %10
}

; Function Attrs: nounwind uwtable
define internal void @raw_heap_insert(ptr noundef %0, ptr noundef %1) #0 {
  %3 = alloca ptr, align 8
  %4 = alloca ptr, align 8
  %5 = alloca ptr, align 8
  %6 = alloca i64, align 8
  %7 = alloca i64, align 8
  %8 = alloca i64, align 8
  %9 = alloca i16, align 2
  %10 = alloca ptr, align 8
  %11 = alloca i32, align 4
  %12 = alloca ptr, align 8
  %13 = alloca ptr, align 8
  store ptr %0, ptr %3, align 8
  store ptr %1, ptr %4, align 8
  call void @llvm.lifetime.start.p0(i64 8, ptr %5) #10
  call void @llvm.lifetime.start.p0(i64 8, ptr %6) #10
  call void @llvm.lifetime.start.p0(i64 8, ptr %7) #10
  call void @llvm.lifetime.start.p0(i64 8, ptr %8) #10
  call void @llvm.lifetime.start.p0(i64 2, ptr %9) #10
  call void @llvm.lifetime.start.p0(i64 8, ptr %10) #10
  %14 = load ptr, ptr %3, align 8
  %15 = getelementptr inbounds nuw %struct.RewriteStateData, ptr %14, i32 0, i32 1
  %16 = load ptr, ptr %15, align 8
  %17 = getelementptr inbounds nuw %struct.RelationData, ptr %16, i32 0, i32 13
  %18 = load ptr, ptr %17, align 8
  %19 = getelementptr inbounds nuw %struct.FormData_pg_class, ptr %18, i32 0, i32 16
  %20 = load i8, ptr %19, align 1
  %21 = sext i8 %20 to i32
  %22 = icmp eq i32 %21, 116
  br i1 %22, label %23, label %25

23:                                               ; preds = %2
  %24 = load ptr, ptr %4, align 8
  store ptr %24, ptr %10, align 8
  br label %46

25:                                               ; preds = %2
  %26 = load ptr, ptr %4, align 8
  %27 = call zeroext i1 @HeapTupleHasExternal(ptr noundef %26)
  br i1 %27, label %34, label %28

28:                                               ; preds = %25
  %29 = load ptr, ptr %4, align 8
  %30 = getelementptr inbounds nuw %struct.HeapTupleData, ptr %29, i32 0, i32 0
  %31 = load i32, ptr %30, align 8
  %32 = zext i32 %31 to i64
  %33 = icmp ugt i64 %32, 2032
  br i1 %33, label %34, label %43

34:                                               ; preds = %28, %25
  call void @llvm.lifetime.start.p0(i64 4, ptr %11) #10
  store i32 2, ptr %11, align 4
  %35 = load i32, ptr %11, align 4
  %36 = or i32 %35, 8
  store i32 %36, ptr %11, align 4
  %37 = load ptr, ptr %3, align 8
  %38 = getelementptr inbounds nuw %struct.RewriteStateData, ptr %37, i32 0, i32 1
  %39 = load ptr, ptr %38, align 8
  %40 = load ptr, ptr %4, align 8
  %41 = load i32, ptr %11, align 4
  %42 = call ptr @heap_toast_insert_or_update(ptr noundef %39, ptr noundef %40, ptr noundef null, i32 noundef %41)
  store ptr %42, ptr %10, align 8
  call void @llvm.lifetime.end.p0(i64 4, ptr %11) #10
  br label %45

43:                                               ; preds = %28
  %44 = load ptr, ptr %4, align 8
  store ptr %44, ptr %10, align 8
  br label %45

45:                                               ; preds = %43, %34
  br label %46

46:                                               ; preds = %45, %23
  %47 = load ptr, ptr %10, align 8
  %48 = getelementptr inbounds nuw %struct.HeapTupleData, ptr %47, i32 0, i32 0
  %49 = load i32, ptr %48, align 8
  %50 = zext i32 %49 to i64
  %51 = add i64 %50, 7
  %52 = and i64 %51, -8
  store i64 %52, ptr %8, align 8
  %53 = load i64, ptr %8, align 8
  %54 = icmp ugt i64 %53, 8160
  br i1 %54, label %55, label %68

55:                                               ; preds = %46
  br label %56

56:                                               ; preds = %55
  br i1 true, label %57, label %59

57:                                               ; preds = %56
  %58 = call zeroext i1 @errstart_cold(i32 noundef 21, ptr noundef null) #11
  br i1 %58, label %61, label %65

59:                                               ; preds = %56
  %60 = call zeroext i1 @errstart(i32 noundef 21, ptr noundef null)
  br i1 %60, label %61, label %65

61:                                               ; preds = %59, %57
  %62 = call i32 @errcode(i32 noundef 261)
  %63 = load i64, ptr %8, align 8
  %64 = call i32 (ptr, ...) @errmsg(ptr noundef @.str.20, i64 noundef %63, i64 noundef 8160)
  call void @errfinish(ptr noundef @.str.6, i32 noundef 641, ptr noundef @__func__.raw_heap_insert)
  br label %65

65:                                               ; preds = %61, %59, %57
  unreachable

66:                                               ; No predecessors!
  br label %67

67:                                               ; preds = %66
  br label %68

68:                                               ; preds = %67, %46
  %69 = load ptr, ptr %3, align 8
  %70 = getelementptr inbounds nuw %struct.RewriteStateData, ptr %69, i32 0, i32 1
  %71 = load ptr, ptr %70, align 8
  %72 = getelementptr inbounds nuw %struct.RelationData, ptr %71, i32 0, i32 45
  %73 = load ptr, ptr %72, align 8
  %74 = icmp ne ptr %73, null
  br i1 %74, label %75, label %83

75:                                               ; preds = %68
  %76 = load ptr, ptr %3, align 8
  %77 = getelementptr inbounds nuw %struct.RewriteStateData, ptr %76, i32 0, i32 1
  %78 = load ptr, ptr %77, align 8
  %79 = getelementptr inbounds nuw %struct.RelationData, ptr %78, i32 0, i32 45
  %80 = load ptr, ptr %79, align 8
  %81 = getelementptr inbounds nuw %struct.StdRdOptions, ptr %80, i32 0, i32 1
  %82 = load i32, ptr %81, align 4
  br label %84

83:                                               ; preds = %68
  br label %84

84:                                               ; preds = %83, %75
  %85 = phi i32 [ %82, %75 ], [ 100, %83 ]
  %86 = sub i32 100, %85
  %87 = mul i32 8192, %86
  %88 = sdiv i32 %87, 100
  %89 = sext i32 %88 to i64
  store i64 %89, ptr %7, align 8
  %90 = load ptr, ptr %3, align 8
  %91 = getelementptr inbounds nuw %struct.RewriteStateData, ptr %90, i32 0, i32 3
  %92 = load ptr, ptr %91, align 8
  store ptr %92, ptr %5, align 8
  %93 = load ptr, ptr %5, align 8
  %94 = icmp ne ptr %93, null
  br i1 %94, label %95, label %120

95:                                               ; preds = %84
  %96 = load ptr, ptr %5, align 8
  %97 = call i64 @PageGetHeapFreeSpace(ptr noundef %96)
  store i64 %97, ptr %6, align 8
  %98 = load i64, ptr %8, align 8
  %99 = load i64, ptr %7, align 8
  %100 = add i64 %98, %99
  %101 = load i64, ptr %6, align 8
  %102 = icmp ugt i64 %100, %101
  br i1 %102, label %103, label %119

103:                                              ; preds = %95
  %104 = load ptr, ptr %3, align 8
  %105 = getelementptr inbounds nuw %struct.RewriteStateData, ptr %104, i32 0, i32 2
  %106 = load ptr, ptr %105, align 8
  %107 = load ptr, ptr %3, align 8
  %108 = getelementptr inbounds nuw %struct.RewriteStateData, ptr %107, i32 0, i32 4
  %109 = load i32, ptr %108, align 8
  %110 = load ptr, ptr %3, align 8
  %111 = getelementptr inbounds nuw %struct.RewriteStateData, ptr %110, i32 0, i32 3
  %112 = load ptr, ptr %111, align 8
  call void @smgr_bulk_write(ptr noundef %106, i32 noundef %109, ptr noundef %112, i1 noundef zeroext true)
  %113 = load ptr, ptr %3, align 8
  %114 = getelementptr inbounds nuw %struct.RewriteStateData, ptr %113, i32 0, i32 3
  store ptr null, ptr %114, align 8
  store ptr null, ptr %5, align 8
  %115 = load ptr, ptr %3, align 8
  %116 = getelementptr inbounds nuw %struct.RewriteStateData, ptr %115, i32 0, i32 4
  %117 = load i32, ptr %116, align 8
  %118 = add i32 %117, 1
  store i32 %118, ptr %116, align 8
  br label %119

119:                                              ; preds = %103, %95
  br label %120

120:                                              ; preds = %119, %84
  %121 = load ptr, ptr %5, align 8
  %122 = icmp ne ptr %121, null
  br i1 %122, label %134, label %123

123:                                              ; preds = %120
  %124 = load ptr, ptr %3, align 8
  %125 = getelementptr inbounds nuw %struct.RewriteStateData, ptr %124, i32 0, i32 2
  %126 = load ptr, ptr %125, align 8
  %127 = call ptr @smgr_bulk_get_buf(ptr noundef %126)
  %128 = load ptr, ptr %3, align 8
  %129 = getelementptr inbounds nuw %struct.RewriteStateData, ptr %128, i32 0, i32 3
  store ptr %127, ptr %129, align 8
  %130 = load ptr, ptr %3, align 8
  %131 = getelementptr inbounds nuw %struct.RewriteStateData, ptr %130, i32 0, i32 3
  %132 = load ptr, ptr %131, align 8
  store ptr %132, ptr %5, align 8
  %133 = load ptr, ptr %5, align 8
  call void @PageInit(ptr noundef %133, i64 noundef 8192, i64 noundef 0)
  br label %134

134:                                              ; preds = %123, %120
  %135 = load ptr, ptr %5, align 8
  %136 = load ptr, ptr %10, align 8
  %137 = getelementptr inbounds nuw %struct.HeapTupleData, ptr %136, i32 0, i32 3
  %138 = load ptr, ptr %137, align 8
  %139 = load ptr, ptr %10, align 8
  %140 = getelementptr inbounds nuw %struct.HeapTupleData, ptr %139, i32 0, i32 0
  %141 = load i32, ptr %140, align 8
  %142 = zext i32 %141 to i64
  %143 = call zeroext i16 @PageAddItemExtended(ptr noundef %135, ptr noundef %138, i64 noundef %142, i16 noundef zeroext 0, i32 noundef 2)
  store i16 %143, ptr %9, align 2
  %144 = load i16, ptr %9, align 2
  %145 = zext i16 %144 to i32
  %146 = icmp eq i32 %145, 0
  br i1 %146, label %147, label %158

147:                                              ; preds = %134
  br label %148

148:                                              ; preds = %147
  br i1 true, label %149, label %151

149:                                              ; preds = %148
  %150 = call zeroext i1 @errstart_cold(i32 noundef 21, ptr noundef null) #11
  br i1 %150, label %153, label %155

151:                                              ; preds = %148
  %152 = call zeroext i1 @errstart(i32 noundef 21, ptr noundef null)
  br i1 %152, label %153, label %155

153:                                              ; preds = %151, %149
  %154 = call i32 (ptr, ...) @errmsg_internal(ptr noundef @.str.21)
  call void @errfinish(ptr noundef @.str.6, i32 noundef 679, ptr noundef @__func__.raw_heap_insert)
  br label %155

155:                                              ; preds = %153, %151, %149
  unreachable

156:                                              ; No predecessors!
  br label %157

157:                                              ; preds = %156
  br label %158

158:                                              ; preds = %157, %134
  %159 = load ptr, ptr %4, align 8
  %160 = getelementptr inbounds nuw %struct.HeapTupleData, ptr %159, i32 0, i32 1
  %161 = load ptr, ptr %3, align 8
  %162 = getelementptr inbounds nuw %struct.RewriteStateData, ptr %161, i32 0, i32 4
  %163 = load i32, ptr %162, align 8
  %164 = load i16, ptr %9, align 2
  call void @ItemPointerSet(ptr noundef %160, i32 noundef %163, i16 noundef zeroext %164)
  %165 = load ptr, ptr %4, align 8
  %166 = getelementptr inbounds nuw %struct.HeapTupleData, ptr %165, i32 0, i32 3
  %167 = load ptr, ptr %166, align 8
  %168 = getelementptr inbounds nuw %struct.HeapTupleHeaderData, ptr %167, i32 0, i32 1
  %169 = call zeroext i1 @ItemPointerIsValid(ptr noundef %168)
  br i1 %169, label %181, label %170

170:                                              ; preds = %158
  call void @llvm.lifetime.start.p0(i64 8, ptr %12) #10
  call void @llvm.lifetime.start.p0(i64 8, ptr %13) #10
  %171 = load ptr, ptr %5, align 8
  %172 = load i16, ptr %9, align 2
  %173 = call ptr @PageGetItemId(ptr noundef %171, i16 noundef zeroext %172)
  store ptr %173, ptr %12, align 8
  %174 = load ptr, ptr %5, align 8
  %175 = load ptr, ptr %12, align 8
  %176 = call ptr @PageGetItem(ptr noundef %174, ptr noundef %175)
  store ptr %176, ptr %13, align 8
  %177 = load ptr, ptr %13, align 8
  %178 = getelementptr inbounds nuw %struct.HeapTupleHeaderData, ptr %177, i32 0, i32 1
  %179 = load ptr, ptr %4, align 8
  %180 = getelementptr inbounds nuw %struct.HeapTupleData, ptr %179, i32 0, i32 1
  call void @llvm.memcpy.p0.p0.i64(ptr align 4 %178, ptr align 4 %180, i64 6, i1 false)
  call void @llvm.lifetime.end.p0(i64 8, ptr %13) #10
  call void @llvm.lifetime.end.p0(i64 8, ptr %12) #10
  br label %181

181:                                              ; preds = %170, %158
  %182 = load ptr, ptr %10, align 8
  %183 = load ptr, ptr %4, align 8
  %184 = icmp ne ptr %182, %183
  br i1 %184, label %185, label %187

185:                                              ; preds = %181
  %186 = load ptr, ptr %10, align 8
  call void @heap_freetuple(ptr noundef %186)
  br label %187

187:                                              ; preds = %185, %181
  call void @llvm.lifetime.end.p0(i64 8, ptr %10) #10
  call void @llvm.lifetime.end.p0(i64 2, ptr %9) #10
  call void @llvm.lifetime.end.p0(i64 8, ptr %8) #10
  call void @llvm.lifetime.end.p0(i64 8, ptr %7) #10
  call void @llvm.lifetime.end.p0(i64 8, ptr %6) #10
  call void @llvm.lifetime.end.p0(i64 8, ptr %5) #10
  ret void
}