; Function Attrs: nounwind uwtable
define internal fastcc void @raw_heap_insert(ptr noundef captures(none) %0, ptr noundef %1) unnamed_addr #0 {
  %3 = getelementptr inbounds nuw i8, ptr %0, i64 8
  %4 = load ptr, ptr %3, align 8
  %5 = getelementptr inbounds nuw i8, ptr %4, i64 56
  %6 = load ptr, ptr %5, align 8
  %7 = getelementptr inbounds nuw i8, ptr %6, i64 115
  %8 = load i8, ptr %7, align 1
  %9 = icmp eq i8 %8, 116
  br i1 %9, label %19, label %10

10:                                               ; preds = %2
  %11 = getelementptr i8, ptr %1, i64 16
  %.val = load ptr, ptr %11, align 8
  %12 = getelementptr i8, ptr %.val, i64 20
  %.val.val = load i16, ptr %12, align 4
  %13 = and i16 %.val.val, 4
  %.not58 = icmp eq i16 %13, 0
  br i1 %.not58, label %14, label %17

14:                                               ; preds = %10
  %15 = load i32, ptr %1, align 8
  %16 = icmp ugt i32 %15, 2032
  br i1 %16, label %17, label %19

17:                                               ; preds = %14, %10
  %18 = tail call ptr @heap_toast_insert_or_update(ptr noundef nonnull %4, ptr noundef nonnull %1, ptr noundef null, i32 noundef 10) #13
  br label %19

19:                                               ; preds = %14, %2, %17
  %.046 = phi ptr [ %18, %17 ], [ %1, %2 ], [ %1, %14 ]
  %20 = load i32, ptr %.046, align 8
  %21 = zext i32 %20 to i64
  %22 = add nuw nsw i64 %21, 7
  %23 = and i64 %22, 8589934584
  %24 = icmp samesign ugt i64 %23, 8160
  br i1 %24, label %25, label %29

25:                                               ; preds = %19
  %26 = tail call zeroext i1 @errstart_cold(i32 noundef 21, ptr noundef null) #14
  tail call void @llvm.assume(i1 %26)
  %27 = tail call i32 @errcode(i32 noundef 261) #13
  %28 = tail call i32 (ptr, ...) @errmsg(ptr noundef nonnull @.str.20, i64 noundef %23, i64 noundef 8160) #13
  tail call void @errfinish(ptr noundef nonnull @.str.6, i32 noundef 641, ptr noundef nonnull @__func__.raw_heap_insert) #13
  unreachable

29:                                               ; preds = %19
  %30 = load ptr, ptr %3, align 8
  %31 = getelementptr inbounds nuw i8, ptr %30, i64 304
  %32 = load ptr, ptr %31, align 8
  %.not = icmp eq ptr %32, null
  br i1 %.not, label %40, label %33

33:                                               ; preds = %29
  %34 = getelementptr inbounds nuw i8, ptr %32, i64 4
  %35 = load i32, ptr %34, align 4
  %36 = shl i32 %35, 13
  %37 = sub i32 819200, %36
  %38 = sdiv i32 %37, 100
  %39 = sext i32 %38 to i64
  br label %40

40:                                               ; preds = %29, %33
  %41 = phi i64 [ %39, %33 ], [ 0, %29 ]
  %42 = getelementptr inbounds nuw i8, ptr %0, i64 24
  %43 = load ptr, ptr %42, align 8
  %.not52 = icmp eq ptr %43, null
  br i1 %.not52, label %56, label %44

44:                                               ; preds = %40
  %45 = tail call i64 @PageGetHeapFreeSpace(ptr noundef nonnull %43) #13
  %46 = add nsw i64 %41, %23
  %47 = icmp ugt i64 %46, %45
  br i1 %47, label %48, label %60

48:                                               ; preds = %44
  %49 = getelementptr inbounds nuw i8, ptr %0, i64 16
  %50 = load ptr, ptr %49, align 8
  %51 = getelementptr inbounds nuw i8, ptr %0, i64 32
  %52 = load i32, ptr %51, align 8
  %53 = load ptr, ptr %42, align 8
  tail call void @smgr_bulk_write(ptr noundef %50, i32 noundef %52, ptr noundef %53, i1 noundef zeroext true) #13
  store ptr null, ptr %42, align 8
  %54 = load i32, ptr %51, align 8
  %55 = add i32 %54, 1
  store i32 %55, ptr %51, align 8
  br label %56

56:                                               ; preds = %48, %40
  %57 = getelementptr inbounds nuw i8, ptr %0, i64 16
  %58 = load ptr, ptr %57, align 8
  %59 = tail call ptr @smgr_bulk_get_buf(ptr noundef %58) #13
  store ptr %59, ptr %42, align 8
  tail call void @PageInit(ptr noundef %59, i64 noundef 8192, i64 noundef 0) #13
  br label %60

60:                                               ; preds = %44, %56
  %.1 = phi ptr [ %59, %56 ], [ %43, %44 ]
  %61 = getelementptr inbounds nuw i8, ptr %.046, i64 16
  %62 = load ptr, ptr %61, align 8
  %63 = load i32, ptr %.046, align 8
  %64 = zext i32 %63 to i64
  %65 = tail call zeroext i16 @PageAddItemExtended(ptr noundef %.1, ptr noundef %62, i64 noundef %64, i16 noundef zeroext 0, i32 noundef 2) #13
  %66 = icmp eq i16 %65, 0
  br i1 %66, label %67, label %70

67:                                               ; preds = %60
  %68 = tail call zeroext i1 @errstart_cold(i32 noundef 21, ptr noundef null) #14
  tail call void @llvm.assume(i1 %68)
  %69 = tail call i32 (ptr, ...) @errmsg_internal(ptr noundef nonnull @.str.21) #13
  tail call void @errfinish(ptr noundef nonnull @.str.6, i32 noundef 679, ptr noundef nonnull @__func__.raw_heap_insert) #13
  unreachable

70:                                               ; preds = %60
  %71 = getelementptr inbounds nuw i8, ptr %1, i64 4
  %72 = getelementptr inbounds nuw i8, ptr %0, i64 32
  %73 = load i32, ptr %72, align 8
  %74 = lshr i32 %73, 16
  %75 = trunc nuw i32 %74 to i16
  store i16 %75, ptr %71, align 2
  %76 = trunc i32 %73 to i16
  %77 = getelementptr inbounds nuw i8, ptr %1, i64 6
  store i16 %76, ptr %77, align 2
  %78 = getelementptr inbounds nuw i8, ptr %1, i64 8
  store i16 %65, ptr %78, align 2
  %79 = getelementptr inbounds nuw i8, ptr %1, i64 16
  %80 = load ptr, ptr %79, align 8
  %81 = getelementptr inbounds nuw i8, ptr %80, i64 16
  %82 = load i16, ptr %81, align 2
  %.not59 = icmp eq i16 %82, 0
  br i1 %.not59, label %83, label %92

83:                                               ; preds = %70
  %84 = getelementptr inbounds nuw i8, ptr %.1, i64 24
  %85 = zext i16 %65 to i64
  %86 = add nsw i64 %85, -1
  %87 = getelementptr inbounds [0 x %struct.ItemIdData], ptr %84, i64 0, i64 %86
  %.val55 = load i32, ptr %87, align 4
  %88 = and i32 %.val55, 32767
  %89 = zext nneg i32 %88 to i64
  %90 = getelementptr inbounds nuw i8, ptr %.1, i64 %89
  %91 = getelementptr inbounds nuw i8, ptr %90, i64 12
  tail call void @llvm.memcpy.p0.p0.i64(ptr noundef nonnull align 4 dereferenceable(6) %91, ptr noundef nonnull align 4 dereferenceable(6) %71, i64 6, i1 false)
  br label %92

92:                                               ; preds = %83, %70
  %.not54 = icmp eq ptr %.046, %1
  br i1 %.not54, label %94, label %93

93:                                               ; preds = %92
  tail call void @heap_freetuple(ptr noundef nonnull %.046) #13
  br label %94

94:                                               ; preds = %93, %92
  ret void
}